target datalayout = "e-m:e-p270:32:32-p271:32:32-p272:64:64-i64:64-i128:128-f80:128-n8:16:32:64-S128"
target triple = "x86_64-pc-linux-gnu"

%struct.timespec = type { i64, i64 }

@_ZL13mi_clock_diff = internal global i64 0, align 8

; Function Attrs: mustprogress nounwind uwtable
define hidden noundef i64 @_Z18_mi_prim_clock_nowv() #5 {
  %1 = alloca %struct.timespec, align 8
  call void @llvm.lifetime.start.p0(i64 16, ptr %1) #19
  %2 = call i32 @clock_gettime(i32 noundef 1, ptr noundef %1) #19
  %3 = getelementptr inbounds nuw %struct.timespec, ptr %1, i32 0, i32 0
  %4 = load i64, ptr %3, align 8, !tbaa !332
  %5 = mul nsw i64 %4, 1000
  %6 = getelementptr inbounds nuw %struct.timespec, ptr %1, i32 0, i32 1
  %7 = load i64, ptr %6, align 8, !tbaa !334
  %8 = sdiv i64 %7, 1000000
  %9 = add nsw i64 %5, %8
  call void @llvm.lifetime.end.p0(i64 16, ptr %1) #19
  ret i64 %9
}

; Function Attrs: mustprogress uwtable
define hidden noundef i64 @_Z13_mi_clock_nowv() #0 {
  %1 = call noundef i64 @_Z18_mi_prim_clock_nowv()
  ret i64 %1
}

; Function Attrs: mustprogress uwtable
define hidden noundef i64 @_Z13_mi_clock_endl(i64 noundef %0) #0 {
  %2 = alloca i64, align 8
  %3 = alloca i64, align 8
  store i64 %0, ptr %2, align 8, !tbaa !18
  call void @llvm.lifetime.start.p0(i64 8, ptr %3) #19
  %4 = call noundef i64 @_Z13_mi_clock_nowv()
  store i64 %4, ptr %3, align 8, !tbaa !18
  %5 = load i64, ptr %3, align 8, !tbaa !18
  %6 = load i64, ptr %2, align 8, !tbaa !18
  %7 = sub nsw i64 %5, %6
  %8 = load i64, ptr @_ZL13mi_clock_diff, align 8, !tbaa !18
  %9 = sub nsw i64 %7, %8
  call void @llvm.lifetime.end.p0(i64 8, ptr %3) #19
  ret i64 %9
}